target datalayout = "e-m:e-p270:32:32-p271:32:32-p272:64:64-i64:64-i128:128-f80:128-n8:16:32:64-S128"
target triple = "x86_64-pc-linux-gnu"

%struct._GtkTreeIter = type { i32, ptr, ptr, ptr }
%struct.dt_iop_lut3d_gui_data_t = type { ptr, ptr, ptr, ptr, ptr, ptr, ptr, i64 }

; Function Attrs: nounwind uwtable
define internal i32 @select_lutname_in_list(ptr noundef %0, ptr noundef %1) #0 {
  %3 = alloca i32, align 4
  %4 = alloca ptr, align 8
  %5 = alloca ptr, align 8
  %6 = alloca %struct._GtkTreeIter, align 8
  %7 = alloca ptr, align 8
  %8 = alloca ptr, align 8
  %9 = alloca i32, align 4
  %10 = alloca ptr, align 8
  %11 = alloca ptr, align 8
  %12 = alloca i32, align 4
  store ptr %0, ptr %4, align 8, !tbaa !166
  store ptr %1, ptr %5, align 8, !tbaa !41
  call void @llvm.lifetime.start.p0(i64 32, ptr %6) #13
  call void @llvm.lifetime.start.p0(i64 8, ptr %7) #13
  %13 = load ptr, ptr %4, align 8, !tbaa !166
  %14 = getelementptr inbounds nuw %struct.dt_iop_lut3d_gui_data_t, ptr %13, i32 0, i32 5
  %15 = load ptr, ptr %14, align 8, !tbaa !168
  %16 = call ptr @gtk_tree_view_get_selection(ptr noundef %15)
  store ptr %16, ptr %7, align 8, !tbaa !172
  call void @llvm.lifetime.start.p0(i64 8, ptr %8) #13
  %17 = load ptr, ptr %4, align 8, !tbaa !166
  %18 = getelementptr inbounds nuw %struct.dt_iop_lut3d_gui_data_t, ptr %17, i32 0, i32 5
  %19 = load ptr, ptr %18, align 8, !tbaa !168
  %20 = call ptr @gtk_tree_view_get_model(ptr noundef %19)
  store ptr %20, ptr %8, align 8, !tbaa !170
  %21 = load ptr, ptr %5, align 8, !tbaa !41
  %22 = icmp ne ptr %21, null
  br i1 %22, label %23, label %54

23:                                               ; preds = %2
  call void @llvm.lifetime.start.p0(i64 4, ptr %9) #13
  %24 = load ptr, ptr %8, align 8, !tbaa !170
  %25 = call i32 @gtk_tree_model_get_iter_first(ptr noundef %24, ptr noundef %6)
  store i32 %25, ptr %9, align 4, !tbaa !16
  br label %26

26:                                               ; preds = %51, %23
  %27 = load i32, ptr %9, align 4, !tbaa !16
  %28 = icmp ne i32 %27, 0
  br i1 %28, label %29, label %52

29:                                               ; preds = %26
  call void @llvm.lifetime.start.p0(i64 8, ptr %10) #13
  %30 = load ptr, ptr %8, align 8, !tbaa !170
  call void (ptr, ptr, ...) @gtk_tree_model_get(ptr noundef %30, ptr noundef %6, i32 noundef 0, ptr noundef %10, i32 noundef -1)
  %31 = load ptr, ptr %5, align 8, !tbaa !41
  %32 = load ptr, ptr %10, align 8, !tbaa !41
  %33 = call i32 @g_strcmp0(ptr noundef %31, ptr noundef %32)
  %34 = icmp ne i32 %33, 0
  br i1 %34, label %45, label %35

35:                                               ; preds = %29
  %36 = load ptr, ptr %7, align 8, !tbaa !172
  call void @gtk_tree_selection_select_iter(ptr noundef %36, ptr noundef %6)
  call void @llvm.lifetime.start.p0(i64 8, ptr %11) #13
  %37 = load ptr, ptr %8, align 8, !tbaa !170
  %38 = call ptr @gtk_tree_model_get_path(ptr noundef %37, ptr noundef %6)
  store ptr %38, ptr %11, align 8, !tbaa !223
  %39 = load ptr, ptr %4, align 8, !tbaa !166
  %40 = getelementptr inbounds nuw %struct.dt_iop_lut3d_gui_data_t, ptr %39, i32 0, i32 5
  %41 = load ptr, ptr %40, align 8, !tbaa !168
  %42 = load ptr, ptr %11, align 8, !tbaa !223
  call void @gtk_tree_view_scroll_to_cell(ptr noundef %41, ptr noundef %42, ptr noundef null, i32 noundef 1, float noundef 0x3FC99999A0000000, float noundef 0.000000e+00)
  %43 = load ptr, ptr %11, align 8, !tbaa !223
  call void @gtk_tree_path_free(ptr noundef %43)
  %44 = load ptr, ptr %10, align 8, !tbaa !41
  call void @g_free(ptr noundef %44)
  store i32 1, ptr %3, align 4
  store i32 1, ptr %12, align 4
  call void @llvm.lifetime.end.p0(i64 8, ptr %11) #13
  br label %49

45:                                               ; preds = %29
  %46 = load ptr, ptr %10, align 8, !tbaa !41
  call void @g_free(ptr noundef %46)
  %47 = load ptr, ptr %8, align 8, !tbaa !170
  %48 = call i32 @gtk_tree_model_iter_next(ptr noundef %47, ptr noundef %6)
  store i32 %48, ptr %9, align 4, !tbaa !16
  store i32 0, ptr %12, align 4
  br label %49

49:                                               ; preds = %45, %35
  call void @llvm.lifetime.end.p0(i64 8, ptr %10) #13
  %50 = load i32, ptr %12, align 4
  switch i32 %50, label %53 [
    i32 0, label %51
  ]

51:                                               ; preds = %49
  br label %26

52:                                               ; preds = %26
  store i32 0, ptr %3, align 4
  store i32 1, ptr %12, align 4
  br label %53

53:                                               ; preds = %52, %49
  call void @llvm.lifetime.end.p0(i64 4, ptr %9) #13
  br label %61

54:                                               ; preds = %2
  %55 = load ptr, ptr %8, align 8, !tbaa !170
  %56 = call i32 @gtk_tree_model_iter_nth_child(ptr noundef %55, ptr noundef %6, ptr noundef null, i32 noundef 0)
  %57 = icmp ne i32 %56, 0
  br i1 %57, label %58, label %60

58:                                               ; preds = %54
  %59 = load ptr, ptr %7, align 8, !tbaa !172
  call void @gtk_tree_selection_select_iter(ptr noundef %59, ptr noundef %6)
  store i32 1, ptr %3, align 4
  store i32 1, ptr %12, align 4
  br label %61

60:                                               ; preds = %54
  store i32 0, ptr %3, align 4
  store i32 1, ptr %12, align 4
  br label %61

61:                                               ; preds = %60, %58, %53
  call void @llvm.lifetime.end.p0(i64 8, ptr %8) #13
  call void @llvm.lifetime.end.p0(i64 8, ptr %7) #13
  call void @llvm.lifetime.end.p0(i64 32, ptr %6) #13
  %62 = load i32, ptr %3, align 4
  ret i32 %62
}