; Function Attrs: nounwind uwtable
define internal fastcc range(i32 0, 2) i32 @select_lutname_in_list(ptr noundef readonly captures(none) %0, ptr noundef %1) unnamed_addr #1 {
  %3 = alloca %struct._GtkTreeIter, align 8
  %4 = alloca ptr, align 8
  call void @llvm.lifetime.start.p0(i64 32, ptr nonnull %3) #25
  %5 = getelementptr inbounds nuw i8, ptr %0, i64 40
  %6 = load ptr, ptr %5, align 8, !tbaa !133
  %7 = tail call ptr @gtk_tree_view_get_selection(ptr noundef %6) #25
  %8 = load ptr, ptr %5, align 8, !tbaa !133
  %9 = tail call ptr @gtk_tree_view_get_model(ptr noundef %8) #25
  %.not = icmp eq ptr %1, null
  br i1 %.not, label %20, label %10

10:                                               ; preds = %2
  %11 = call i32 @gtk_tree_model_get_iter_first(ptr noundef %9, ptr noundef nonnull %3) #25
  %.not2124 = icmp eq i32 %11, 0
  br i1 %.not2124, label %.loopexit, label %.lr.ph

.lr.ph:                                           ; preds = %10, %17
  call void @llvm.lifetime.start.p0(i64 8, ptr nonnull %4) #25
  call void (ptr, ptr, ...) @gtk_tree_model_get(ptr noundef %9, ptr noundef nonnull %3, i32 noundef 0, ptr noundef nonnull %4, i32 noundef -1) #25
  %12 = load ptr, ptr %4, align 8, !tbaa !74
  %13 = call i32 @g_strcmp0(ptr noundef nonnull %1, ptr noundef %12) #25
  %.not22.not = icmp eq i32 %13, 0
  br i1 %.not22.not, label %.thread, label %17

.thread:                                          ; preds = %.lr.ph
  call void @gtk_tree_selection_select_iter(ptr noundef %7, ptr noundef nonnull %3) #25
  %14 = call ptr @gtk_tree_model_get_path(ptr noundef %9, ptr noundef nonnull %3) #25
  %15 = load ptr, ptr %5, align 8, !tbaa !133
  call void @gtk_tree_view_scroll_to_cell(ptr noundef %15, ptr noundef %14, ptr noundef null, i32 noundef 1, float noundef 0x3FC99999A0000000, float noundef 0.000000e+00) #25
  call void @gtk_tree_path_free(ptr noundef %14) #25
  %16 = load ptr, ptr %4, align 8, !tbaa !74
  call void @g_free(ptr noundef %16) #25
  call void @llvm.lifetime.end.p0(i64 8, ptr nonnull %4) #25
  br label %.loopexit

17:                                               ; preds = %.lr.ph
  %18 = load ptr, ptr %4, align 8, !tbaa !74
  call void @g_free(ptr noundef %18) #25
  %19 = call i32 @gtk_tree_model_iter_next(ptr noundef %9, ptr noundef nonnull %3) #25
  call void @llvm.lifetime.end.p0(i64 8, ptr nonnull %4) #25
  %.not21 = icmp eq i32 %19, 0
  br i1 %.not21, label %.loopexit, label %.lr.ph

20:                                               ; preds = %2
  %21 = call i32 @gtk_tree_model_iter_nth_child(ptr noundef %9, ptr noundef nonnull %3, ptr noundef null, i32 noundef 0) #25
  %.not20 = icmp eq i32 %21, 0
  br i1 %.not20, label %.loopexit, label %22

22:                                               ; preds = %20
  call void @gtk_tree_selection_select_iter(ptr noundef %7, ptr noundef nonnull %3) #25
  br label %.loopexit

.loopexit:                                        ; preds = %17, %10, %.thread, %20, %22
  %.3 = phi i32 [ 1, %22 ], [ 0, %20 ], [ 1, %.thread ], [ 0, %10 ], [ 0, %17 ]
  call void @llvm.lifetime.end.p0(i64 32, ptr nonnull %3) #25
  ret i32 %.3
}